; Function Attrs: nounwind uwtable
define void @av_bprintf(ptr noundef captures(address) %0, ptr noundef readonly captures(none) %1, ...) local_unnamed_addr #0 {
  %3 = alloca [1 x %struct.__va_list_tag], align 16
  call void @llvm.lifetime.start.p0(i64 24, ptr nonnull %3) #12
  %4 = getelementptr inbounds nuw i8, ptr %0, i64 12
  %5 = getelementptr inbounds nuw i8, ptr %0, i64 8
  %6 = getelementptr inbounds nuw i8, ptr %0, i64 16
  %7 = getelementptr inbounds nuw i8, ptr %0, i64 20
  %.pre = load i32, ptr %4, align 4, !tbaa !12
  br label %8

8:                                                ; preds = %av_bprint_alloc.exit, %2
  %9 = phi i32 [ %.0.i, %av_bprint_alloc.exit ], [ %.pre, %2 ]
  %10 = load i32, ptr %5, align 8, !tbaa !11
  %11 = call i32 @llvm.usub.sat.i32(i32 %9, i32 %10)
  %.not.not = icmp ugt i32 %9, %10
  br i1 %.not.not, label %12, label %16

12:                                               ; preds = %8
  %13 = load ptr, ptr %0, align 8, !tbaa !4
  %14 = zext i32 %10 to i64
  %15 = getelementptr inbounds nuw i8, ptr %13, i64 %14
  br label %16

16:                                               ; preds = %8, %12
  %17 = phi ptr [ %15, %12 ], [ null, %8 ]
  call void @llvm.va_start.p0(ptr nonnull %3)
  %18 = zext i32 %11 to i64
  %19 = call i32 @vsnprintf(ptr noundef %17, i64 noundef %18, ptr noundef %1, ptr noundef nonnull %3) #12
  call void @llvm.va_end.p0(ptr nonnull %3)
  %20 = icmp slt i32 %19, 1
  br i1 %20, label %av_bprint_grow.exit, label %21

21:                                               ; preds = %16
  %22 = icmp ult i32 %19, %11
  %.pr.pre36 = load i32, ptr %4, align 4, !tbaa !12
  br i1 %22, label %av_bprint_alloc.exit.thread, label %23

23:                                               ; preds = %21
  %24 = load i32, ptr %6, align 8, !tbaa !13
  %25 = icmp eq i32 %.pr.pre36, %24
  br i1 %25, label %av_bprint_alloc.exit.thread, label %26

26:                                               ; preds = %23
  %.val.i = load i32, ptr %5, align 8, !tbaa !11
  %.not.i = icmp ult i32 %.val.i, %.pr.pre36
  br i1 %.not.i, label %27, label %av_bprint_alloc.exit.thread

27:                                               ; preds = %26
  %28 = add nuw i32 %.val.i, 1
  %29 = sub nuw i32 -2, %.val.i
  %..i = call i32 @llvm.umin.i32(i32 %29, i32 %19)
  %30 = add i32 %28, %..i
  %31 = lshr i32 %24, 1
  %32 = icmp ugt i32 %.pr.pre36, %31
  %33 = shl nuw i32 %.pr.pre36, 1
  %34 = select i1 %32, i32 %24, i32 %33
  %35 = icmp ult i32 %34, %30
  %.44.i = call i32 @llvm.umin.i32(i32 %24, i32 %30)
  %.0.i = select i1 %35, i32 %.44.i, i32 %34
  %36 = load ptr, ptr %0, align 8, !tbaa !4
  %.not41.i = icmp eq ptr %36, %7
  %spec.select.i = select i1 %.not41.i, ptr null, ptr %36
  %37 = zext i32 %.0.i to i64
  %38 = call ptr @av_realloc(ptr noundef %spec.select.i, i64 noundef %37) #12
  %.not42.i = icmp eq ptr %38, null
  br i1 %.not42.i, label %.av_bprint_alloc.exit.threadthread-pre-split_crit_edge, label %39

.av_bprint_alloc.exit.threadthread-pre-split_crit_edge: ; preds = %27
  %.pr.pre = load i32, ptr %4, align 4, !tbaa !12
  br label %av_bprint_alloc.exit.thread

39:                                               ; preds = %27
  %.not43.i = icmp eq ptr %spec.select.i, null
  br i1 %.not43.i, label %40, label %av_bprint_alloc.exit

40:                                               ; preds = %39
  %41 = load ptr, ptr %0, align 8, !tbaa !4
  %42 = load i32, ptr %5, align 8, !tbaa !11
  %43 = add i32 %42, 1
  %44 = zext i32 %43 to i64
  call void @llvm.memcpy.p0.p0.i64(ptr nonnull align 1 %38, ptr align 1 %41, i64 %44, i1 false)
  br label %av_bprint_alloc.exit

av_bprint_alloc.exit:                             ; preds = %39, %40
  store ptr %38, ptr %0, align 8, !tbaa !4
  store i32 %.0.i, ptr %4, align 4, !tbaa !12
  br label %8

av_bprint_alloc.exit.thread:                      ; preds = %23, %26, %21, %.av_bprint_alloc.exit.threadthread-pre-split_crit_edge
  %45 = phi i32 [ %.pr.pre, %.av_bprint_alloc.exit.threadthread-pre-split_crit_edge ], [ %.pr.pre36, %21 ], [ %.pr.pre36, %26 ], [ %.pr.pre36, %23 ]
  %46 = load i32, ptr %5, align 8, !tbaa !11
  %47 = sub i32 -6, %46
  %..i20 = call i32 @llvm.umin.i32(i32 %19, i32 %47)
  %48 = add i32 %..i20, %46
  store i32 %48, ptr %5, align 8, !tbaa !11
  %.not.i21 = icmp eq i32 %45, 0
  br i1 %.not.i21, label %av_bprint_grow.exit, label %49

49:                                               ; preds = %av_bprint_alloc.exit.thread
  %50 = load ptr, ptr %0, align 8, !tbaa !4
  %51 = add i32 %45, -1
  %.15.i = call i32 @llvm.umin.i32(i32 %48, i32 %51)
  %52 = zext i32 %.15.i to i64
  %53 = getelementptr inbounds nuw i8, ptr %50, i64 %52
  store i8 0, ptr %53, align 1, !tbaa !14
  br label %av_bprint_grow.exit

av_bprint_grow.exit:                              ; preds = %16, %49, %av_bprint_alloc.exit.thread
  call void @llvm.lifetime.end.p0(i64 24, ptr nonnull %3) #12
  ret void
}